TN:
SF:/home/adhampclinux/OS_Final_Project/Stage1/graph.cpp
FN:139,202,_ZN5Graph13random_simpleEmmj
FN:18,19,_ZN5GraphC2Em
FN:22,36,_ZN5Graph8add_edgeEmm
FN:39,75,_ZNK5Graph30is_connected_ignoring_isolatedEv
FN:77,82,_ZNK5Graph16all_even_degreesEv
FN:85,137,_ZN5Graph14load_from_fileERKNSt7__cxx1112basic_stringIcSt11char_traitsIcESaIcEEE
FNDA:0,_ZN5Graph13random_simpleEmmj
FNDA:0,_ZN5GraphC2Em
FNDA:5,_ZN5Graph8add_edgeEmm
FNDA:2,_ZNK5Graph30is_connected_ignoring_isolatedEv
FNDA:2,_ZNK5Graph16all_even_degreesEv
FNDA:1,_ZN5Graph14load_from_fileERKNSt7__cxx1112basic_stringIcSt11char_traitsIcESaIcEEE
FNF:6
FNH:4
DA:18,1
DA:19,0
DA:22,5
DA:23,5
DA:24,5
DA:27,5
DA:28,5
DA:32,5
DA:33,5
DA:34,5
DA:35,5
DA:39,2
DA:41,2
DA:42,2
DA:43,12
DA:44,10
DA:45,10
DA:46,10
DA:51,2
DA:54,2
DA:55,2
DA:56,2
DA:57,2
DA:60,12
DA:61,10
DA:62,10
DA:63,30
DA:64,20
DA:65,8
DA:66,8
DA:67,8
DA:68,8
DA:74,2
DA:75,2
DA:77,2
DA:78,12
DA:79,10
DA:85,1
DA:86,1
DA:87,1
DA:89,1
DA:92,1
DA:93,1
DA:95,1
DA:96,1
DA:97,1
DA:99,1
DA:101,1
DA:102,1
DA:103,1
DA:104,1
DA:107,1
DA:108,1
DA:109,1
DA:110,0
DA:112,1
DA:115,1
DA:118,1
DA:119,6
DA:121,5
DA:122,5
DA:123,5
DA:125,5
DA:127,5
DA:128,5
DA:129,5
DA:130,5
DA:131,5
DA:132,5
DA:134,1
DA:136,1
DA:137,2
DA:139,0
DA:141,0
DA:142,0
DA:143,0
DA:144,0
DA:146,0
DA:147,0
DA:150,0
DA:151,0
DA:153,0
DA:158,0
DA:160,0
DA:162,0
DA:163,0
DA:165,0
DA:166,0
DA:167,0
DA:170,0
DA:171,0
DA:172,0
DA:173,0
DA:174,0
DA:177,0
DA:178,0
DA:179,0
DA:180,0
DA:182,0
DA:184,0
DA:185,0
DA:187,0
DA:188,0
DA:189,0
DA:193,0
DA:195,0
DA:196,0
DA:197,0
DA:199,0
DA:202,0
LF:110
LH:70
end_of_record
TN:
SF:/home/adhampclinux/OS_Final_Project/Stage1/graph.hpp
FNF:0
FNH:0
DA:24,4
DA:30,1
DA:31,2
DA:32,5
LF:4
LH:4
end_of_record
TN:
SF:/home/adhampclinux/OS_Final_Project/Stage2/euler.cpp
FN:14,64,_Z18find_euler_circuitRK5Graph
FN:38,47,_ZZ18find_euler_circuitRK5GraphENKUlmmE_clEmm
FN:5,11,_Z17euler_feasibilityRK5Graph
FNDA:1,_Z18find_euler_circuitRK5Graph
FNDA:5,_ZZ18find_euler_circuitRK5GraphENKUlmmE_clEmm
FNDA:2,_Z17euler_feasibilityRK5Graph
FNF:3
FNH:3
DA:5,2
DA:6,2
DA:7,0
DA:8,2
DA:9,0
DA:10,2
DA:11,2
DA:14,1
DA:15,1
DA:16,1
DA:18,1
DA:19,1
DA:20,1
DA:23,1
DA:24,6
DA:25,5
DA:27,1
DA:28,1
DA:31,1
DA:32,1
DA:33,1
DA:35,1
DA:36,1
DA:38,6
DA:39,5
DA:40,6
DA:41,1
DA:43,5
DA:44,9
DA:45,9
DA:47,6
DA:49,12
DA:50,11
DA:51,11
DA:52,5
DA:53,5
DA:54,5
DA:55,5
DA:57,6
DA:58,6
DA:62,1
DA:63,1
DA:64,2
LF:43
LH:41
end_of_record
TN:
SF:/home/adhampclinux/OS_Final_Project/Stage2/euler.hpp
FNF:0
FNH:0
DA:8,2
LF:1
LH:1
end_of_record
TN:
SF:/home/adhampclinux/OS_Final_Project/Stage3/main.cpp
FN:11,22,_ZL11print_usagePKc
FN:24,111,main
FNDA:0,_ZL11print_usagePKc
FNDA:1,main
FNF:2
FNH:1
DA:11,0
DA:12,0
DA:21,0
DA:22,0
DA:24,1
DA:25,1
DA:26,1
DA:28,1
DA:29,1
DA:30,1
DA:31,1
DA:33,1
DA:34,2
DA:35,1
DA:36,1
DA:37,1
DA:38,1
DA:39,1
DA:40,0
DA:41,0
DA:42,0
DA:43,0
DA:44,0
DA:45,0
DA:46,0
DA:47,0
DA:48,0
DA:49,0
DA:50,0
DA:51,0
DA:52,0
DA:53,0
DA:54,0
DA:55,0
DA:56,0
DA:57,0
DA:58,0
DA:62,1
DA:64,1
DA:66,1
DA:67,0
DA:69,2
DA:70,1
DA:71,0
DA:76,0
DA:77,0
DA:80,0
DA:81,0
DA:82,0
DA:83,0
DA:84,0
DA:85,0
DA:88,1
DA:91,2
DA:92,1
DA:93,0
DA:98,2
DA:99,1
DA:101,0
DA:105,1
DA:106,1
DA:107,7
DA:108,1
DA:111,1
LF:64
LH:29
end_of_record
TN:
SF:/usr/include/c++/13/bits/alloc_traits.h
FNF:0
FNH:0
DA:481,26
DA:482,26
DA:516,3
DA:517,26
DA:533,32
DA:538,32
DA:554,26
DA:558,20
DA:562,6
DA:945,12
DA:948,8
LF:11
LH:11
end_of_record
TN:
SF:/usr/include/c++/13/bits/allocator.h
FNF:0
FNH:0
DA:163,23
DA:167,12
DA:168,12
DA:178,6
DA:184,23
LF:5
LH:5
end_of_record
TN:
SF:/usr/include/c++/13/bits/basic_ios.h
FNF:0
FNH:0
DA:117,6
DA:118,6
DA:125,7
DA:126,7
DA:137,13
DA:138,13
DA:201,13
DA:202,13
LF:8
LH:8
end_of_record
TN:
SF:/usr/include/c++/13/bits/basic_string.h
FN:641,650,_ZNSt7__cxx1112basic_stringIcSt11char_traitsIcESaIcEEC2IS3_EEPKcRKS3_
FNDA:3,_ZNSt7__cxx1112basic_stringIcSt11char_traitsIcESaIcEEC2IS3_EEPKcRKS3_
FNF:1
FNH:1
DA:181,5
DA:188,3
DA:189,3
DA:192,2
DA:193,2
DA:212,0
DA:213,0
DA:217,11
DA:218,11
DA:222,24
DA:223,9
DA:227,4
DA:230,3
DA:249,0
DA:250,0
DA:254,11
DA:256,11
DA:257,11
DA:348,2
DA:482,9
DA:484,9
DA:522,2
DA:524,2
DA:526,2
DA:527,2
DA:528,0
DA:641,3
DA:642,3
DA:645,3
DA:646,0
DA:648,3
DA:649,3
DA:650,3
DA:803,5
DA:804,5
DA:955,6
DA:956,6
DA:973,6
DA:974,6
DA:1071,6
DA:1072,6
DA:1221,6
DA:1258,6
DA:1261,6
DA:2608,0
DA:2609,0
DA:4032,0
DA:4037,0
LF:48
LH:38
end_of_record
TN:
SF:/usr/include/c++/13/bits/basic_string.tcc
FN:221,252,_ZNSt7__cxx1112basic_stringIcSt11char_traitsIcESaIcEE12_M_constructIPKcEEvT_S8_St20forward_iterator_tag
FNDA:9,_ZNSt7__cxx1112basic_stringIcSt11char_traitsIcESaIcEE12_M_constructIPKcEEvT_S8_St20forward_iterator_tag
FNF:1
FNH:1
DA:221,9
DA:225,9
DA:227,9
DA:229,0
DA:230,0
DA:239,9
DA:242,9
DA:245,9
DA:247,9
DA:249,9
DA:251,9
DA:252,9
LF:12
LH:10
end_of_record
TN:
SF:/usr/include/c++/13/bits/char_traits.h
FNF:0
FNH:0
DA:351,11
DA:358,4
DA:393,3
DA:396,3
DA:399,3
LF:5
LH:5
end_of_record
TN:
SF:/usr/include/c++/13/bits/deque.tcc
FN:484,516,_ZNSt5dequeImSaImEE16_M_push_back_auxIJRKmEEEvDpOT_
FN:560,568,_ZNSt5dequeImSaImEE15_M_pop_back_auxEv
FN:576,584,_ZNSt5dequeImSaImEE16_M_pop_front_auxEv
FN:931,973,_ZNSt5dequeImSaImEE17_M_reallocate_mapEmb
FNDA:0,_ZNSt5dequeImSaImEE16_M_push_back_auxIJRKmEEEvDpOT_
FNDA:0,_ZNSt5dequeImSaImEE15_M_pop_back_auxEv
FNDA:0,_ZNSt5dequeImSaImEE16_M_pop_front_auxEv
FNDA:0,_ZNSt5dequeImSaImEE17_M_reallocate_mapEmb
FNF:4
FNH:0
DA:484,0
DA:492,0
DA:493,0
DA:496,0
DA:497,0
DA:501,0
DA:507,0
DA:509,0
DA:516,0
DA:560,0
DA:563,0
DA:564,0
DA:565,0
DA:566,0
DA:568,0
DA:576,0
DA:579,0
DA:581,0
DA:582,0
DA:583,0
DA:584,0
DA:931,0
DA:934,0
DA:935,0
DA:936,0
DA:939,0
DA:941,0
DA:942,0
DA:943,0
DA:944,0
DA:945,0
DA:949,0
DA:955,0
DA:956,0
DA:959,0
DA:960,0
DA:961,0
DA:962,0
DA:963,0
DA:965,0
DA:967,0
DA:968,0
DA:971,0
DA:972,0
DA:973,0
LF:45
LH:0
end_of_record
TN:
SF:/usr/include/c++/13/bits/hashtable.h
FN:1595,1610,_ZNSt10_HashtableImmSaImENSt8__detail9_IdentityESt8equal_toImESt4hashImENS1_18_Mod_range_hashingENS1_20_Default_ranged_hashENS1_20_Prime_rehash_policyENS1_17_Hashtable_traitsILb0ELb1ELb1EEEED2Ev
FN:1978,2000,_ZNKSt10_HashtableImmSaImENSt8__detail9_IdentityESt8equal_toImESt4hashImENS1_18_Mod_range_hashingENS1_20_Default_ranged_hashENS1_20_Prime_rehash_policyENS1_17_Hashtable_traitsILb0ELb1ELb1EEEE22_M_find_before_node_trImEEPNS1_15_Hash_node_baseEmRKT_m
FN:2007,2033,_ZNSt10_HashtableImmSaImENSt8__detail9_IdentityESt8equal_toImESt4hashImENS1_18_Mod_range_hashingENS1_20_Default_ranged_hashENS1_20_Prime_rehash_policyENS1_17_Hashtable_traitsILb0ELb1ELb1EEEE22_M_insert_bucket_beginEmPNS1_10_Hash_nodeImLb0EEE
FN:2166,2189,_ZNSt10_HashtableImmSaImENSt8__detail9_IdentityESt8equal_toImESt4hashImENS1_18_Mod_range_hashingENS1_20_Default_ranged_hashENS1_20_Prime_rehash_policyENS1_17_Hashtable_traitsILb0ELb1ELb1EEEE21_M_insert_unique_nodeEmmPNS1_10_Hash_nodeImLb0EEEm
FN:2253,2281,_ZNSt10_HashtableImmSaImENSt8__detail9_IdentityESt8equal_toImESt4hashImENS1_18_Mod_range_hashingENS1_20_Default_ranged_hashENS1_20_Prime_rehash_policyENS1_17_Hashtable_traitsILb0ELb1ELb1EEEE16_M_insert_uniqueImmNS1_10_AllocNodeISaINS1_10_Hash_nodeImLb0EEEEEEEESt4pairINS1_14_Node_iteratorImLb1ELb0EEEbEOT_OT0_RKT1_
FN:2520,2529,_ZNSt10_HashtableImmSaImENSt8__detail9_IdentityESt8equal_toImESt4hashImENS1_18_Mod_range_hashingENS1_20_Default_ranged_hashENS1_20_Prime_rehash_policyENS1_17_Hashtable_traitsILb0ELb1ELb1EEEE5clearEv
FN:2536,2552,_ZNSt10_HashtableImmSaImENSt8__detail9_IdentityESt8equal_toImESt4hashImENS1_18_Mod_range_hashingENS1_20_Default_ranged_hashENS1_20_Prime_rehash_policyENS1_17_Hashtable_traitsILb0ELb1ELb1EEEE6rehashEm
FN:2559,2574,_ZNSt10_HashtableImmSaImENSt8__detail9_IdentityESt8equal_toImESt4hashImENS1_18_Mod_range_hashingENS1_20_Default_ranged_hashENS1_20_Prime_rehash_policyENS1_17_Hashtable_traitsILb0ELb1ELb1EEEE9_M_rehashEmRKm
FN:2582,2616,_ZNSt10_HashtableImmSaImENSt8__detail9_IdentityESt8equal_toImESt4hashImENS1_18_Mod_range_hashingENS1_20_Default_ranged_hashENS1_20_Prime_rehash_policyENS1_17_Hashtable_traitsILb0ELb1ELb1EEEE13_M_rehash_auxEmSt17integral_constantIbLb1EE
FN:311,311,_ZNSt10_HashtableImmSaImENSt8__detail9_IdentityESt8equal_toImESt4hashImENS1_18_Mod_range_hashingENS1_20_Default_ranged_hashENS1_20_Prime_rehash_policyENS1_17_Hashtable_traitsILb0ELb1ELb1EEEE12_Scoped_nodeD2Ev
FN:446,452,_ZNSt10_HashtableImmSaImENSt8__detail9_IdentityESt8equal_toImESt4hashImENS1_18_Mod_range_hashingENS1_20_Default_ranged_hashENS1_20_Prime_rehash_policyENS1_17_Hashtable_traitsILb0ELb1ELb1EEEE21_M_deallocate_bucketsEPPNS1_15_Hash_node_baseEm
FNDA:0,_ZNSt10_HashtableImmSaImENSt8__detail9_IdentityESt8equal_toImESt4hashImENS1_18_Mod_range_hashingENS1_20_Default_ranged_hashENS1_20_Prime_rehash_policyENS1_17_Hashtable_traitsILb0ELb1ELb1EEEED2Ev
FNDA:0,_ZNKSt10_HashtableImmSaImENSt8__detail9_IdentityESt8equal_toImESt4hashImENS1_18_Mod_range_hashingENS1_20_Default_ranged_hashENS1_20_Prime_rehash_policyENS1_17_Hashtable_traitsILb0ELb1ELb1EEEE22_M_find_before_node_trImEEPNS1_15_Hash_node_baseEmRKT_m
FNDA:0,_ZNSt10_HashtableImmSaImENSt8__detail9_IdentityESt8equal_toImESt4hashImENS1_18_Mod_range_hashingENS1_20_Default_ranged_hashENS1_20_Prime_rehash_policyENS1_17_Hashtable_traitsILb0ELb1ELb1EEEE22_M_insert_bucket_beginEmPNS1_10_Hash_nodeImLb0EEE
FNDA:0,_ZNSt10_HashtableImmSaImENSt8__detail9_IdentityESt8equal_toImESt4hashImENS1_18_Mod_range_hashingENS1_20_Default_ranged_hashENS1_20_Prime_rehash_policyENS1_17_Hashtable_traitsILb0ELb1ELb1EEEE21_M_insert_unique_nodeEmmPNS1_10_Hash_nodeImLb0EEEm
FNDA:0,_ZNSt10_HashtableImmSaImENSt8__detail9_IdentityESt8equal_toImESt4hashImENS1_18_Mod_range_hashingENS1_20_Default_ranged_hashENS1_20_Prime_rehash_policyENS1_17_Hashtable_traitsILb0ELb1ELb1EEEE16_M_insert_uniqueImmNS1_10_AllocNodeISaINS1_10_Hash_nodeImLb0EEEEEEEESt4pairINS1_14_Node_iteratorImLb1ELb0EEEbEOT_OT0_RKT1_
FNDA:0,_ZNSt10_HashtableImmSaImENSt8__detail9_IdentityESt8equal_toImESt4hashImENS1_18_Mod_range_hashingENS1_20_Default_ranged_hashENS1_20_Prime_rehash_policyENS1_17_Hashtable_traitsILb0ELb1ELb1EEEE5clearEv
FNDA:0,_ZNSt10_HashtableImmSaImENSt8__detail9_IdentityESt8equal_toImESt4hashImENS1_18_Mod_range_hashingENS1_20_Default_ranged_hashENS1_20_Prime_rehash_policyENS1_17_Hashtable_traitsILb0ELb1ELb1EEEE6rehashEm
FNDA:0,_ZNSt10_HashtableImmSaImENSt8__detail9_IdentityESt8equal_toImESt4hashImENS1_18_Mod_range_hashingENS1_20_Default_ranged_hashENS1_20_Prime_rehash_policyENS1_17_Hashtable_traitsILb0ELb1ELb1EEEE9_M_rehashEmRKm
FNDA:0,_ZNSt10_HashtableImmSaImENSt8__detail9_IdentityESt8equal_toImESt4hashImENS1_18_Mod_range_hashingENS1_20_Default_ranged_hashENS1_20_Prime_rehash_policyENS1_17_Hashtable_traitsILb0ELb1ELb1EEEE13_M_rehash_auxEmSt17integral_constantIbLb1EE
FNDA:0,_ZNSt10_HashtableImmSaImENSt8__detail9_IdentityESt8equal_toImESt4hashImENS1_18_Mod_range_hashingENS1_20_Default_ranged_hashENS1_20_Prime_rehash_policyENS1_17_Hashtable_traitsILb0ELb1ELb1EEEE12_Scoped_nodeD2Ev
FNDA:0,_ZNSt10_HashtableImmSaImENSt8__detail9_IdentityESt8equal_toImESt4hashImENS1_18_Mod_range_hashingENS1_20_Default_ranged_hashENS1_20_Prime_rehash_policyENS1_17_Hashtable_traitsILb0ELb1ELb1EEEE21_M_deallocate_bucketsEPPNS1_15_Hash_node_baseEm
FNF:11
FNH:0
DA:300,0
DA:301,0
DA:311,0
DA:416,0
DA:417,0
DA:434,0
DA:436,0
DA:438,0
DA:439,0
DA:442,0
DA:446,0
DA:448,0
DA:451,0
DA:455,0
DA:456,0
DA:464,0
DA:465,0
DA:530,0
DA:623,0
DA:624,0
DA:631,0
DA:632,0
DA:647,0
DA:648,0
DA:733,0
DA:792,0
DA:793,0
DA:796,0
DA:797,0
DA:823,0
DA:826,0
DA:827,0
DA:828,0
DA:902,0
DA:904,0
DA:911,0
DA:916,0
DA:1595,0
DA:1608,0
DA:1609,0
DA:1610,0
DA:1978,0
DA:1984,0
DA:1985,0
DA:1988,0
DA:1989,0
DA:1991,0
DA:1992,0
DA:1994,0
DA:1996,0
DA:2007,0
DA:2011,0
DA:2015,0
DA:2016,0
DA:2023,0
DA:2024,0
DA:2026,0
DA:2029,0
DA:2031,0
DA:2033,0
DA:2166,0
DA:2172,0
DA:2174,0
DA:2177,0
DA:2179,0
DA:2180,0
DA:2186,0
DA:2187,0
DA:2188,0
DA:2253,0
DA:2259,0
DA:2260,0
DA:2261,0
DA:2262,0
DA:2264,0
DA:2265,0
DA:2267,0
DA:2268,0
DA:2269,0
DA:2271,0
DA:2278,0
DA:2279,0
DA:2280,0
DA:2281,0
DA:2520,0
DA:2524,0
DA:2525,0
DA:2526,0
DA:2527,0
DA:2528,0
DA:2529,0
DA:2536,0
DA:2540,0
DA:2542,0
DA:2544,0
DA:2546,0
DA:2547,0
DA:2551,0
DA:2552,0
DA:2559,0
DA:2565,0
DA:2567,0
DA:2571,0
DA:2572,0
DA:2574,0
DA:2582,0
DA:2586,0
DA:2587,0
DA:2588,0
DA:2589,0
DA:2590,0
DA:2592,0
DA:2594,0
DA:2595,0
DA:2597,0
DA:2598,0
DA:2599,0
DA:2600,0
DA:2601,0
DA:2606,0
DA:2607,0
DA:2613,0
DA:2614,0
DA:2615,0
DA:2616,0
LF:125
LH:0
end_of_record
TN:
SF:/usr/include/c++/13/bits/hashtable_policy.h
FN:1071,1076,_ZNSt8__detail7_InsertImmSaImENS_9_IdentityESt8equal_toImESt4hashImENS_18_Mod_range_hashingENS_20_Default_ranged_hashENS_20_Prime_rehash_policyENS_17_Hashtable_traitsILb0ELb1ELb1EEELb1EE6insertEOm
FN:1196,1200,_ZNSt8__detail12_Rehash_baseImmSaImENS_9_IdentityESt8equal_toImESt4hashImENS_18_Mod_range_hashingENS_20_Default_ranged_hashENS_20_Prime_rehash_policyENS_17_Hashtable_traitsILb0ELb1ELb1EEESt17integral_constantIbLb1EEE7reserveEm
FN:1987,2005,_ZNSt8__detail16_Hashtable_allocISaINS_10_Hash_nodeImLb0EEEEE16_M_allocate_nodeIJmEEEPS2_DpOT_
FN:2027,2035,_ZNSt8__detail16_Hashtable_allocISaINS_10_Hash_nodeImLb0EEEEE19_M_deallocate_nodesEPS2_
FN:2039,2048,_ZNSt8__detail16_Hashtable_allocISaINS_10_Hash_nodeImLb0EEEEE19_M_allocate_bucketsEm
FNDA:0,_ZNSt8__detail7_InsertImmSaImENS_9_IdentityESt8equal_toImESt4hashImENS_18_Mod_range_hashingENS_20_Default_ranged_hashENS_20_Prime_rehash_policyENS_17_Hashtable_traitsILb0ELb1ELb1EEELb1EE6insertEOm
FNDA:0,_ZNSt8__detail12_Rehash_baseImmSaImENS_9_IdentityESt8equal_toImESt4hashImENS_18_Mod_range_hashingENS_20_Default_ranged_hashENS_20_Prime_rehash_policyENS_17_Hashtable_traitsILb0ELb1ELb1EEESt17integral_constantIbLb1EEE7reserveEm
FNDA:0,_ZNSt8__detail16_Hashtable_allocISaINS_10_Hash_nodeImLb0EEEEE16_M_allocate_nodeIJmEEEPS2_DpOT_
FNDA:0,_ZNSt8__detail16_Hashtable_allocISaINS_10_Hash_nodeImLb0EEEEE19_M_deallocate_nodesEPS2_
FNDA:0,_ZNSt8__detail16_Hashtable_allocISaINS_10_Hash_nodeImLb0EEEEE19_M_allocate_bucketsEm
FNF:5
FNH:0
DA:171,0
DA:173,0
DA:242,0
DA:243,0
DA:247,0
DA:248,0
DA:313,0
DA:332,0
DA:333,0
DA:337,0
DA:338,0
DA:342,0
DA:343,0
DA:347,0
DA:348,0
DA:375,0
DA:380,0
DA:381,0
DA:393,0
DA:397,0
DA:398,0
DA:436,0
DA:437,0
DA:440,0
DA:441,0
DA:448,0
DA:450,0
DA:451,0
DA:526,0
DA:528,0
DA:544,0
DA:545,0
DA:557,0
DA:558,0
DA:571,0
DA:572,0
DA:579,0
DA:580,0
DA:1071,0
DA:1073,0
DA:1074,0
DA:1075,0
DA:1196,0
DA:1198,0
DA:1199,0
DA:1200,0
DA:1215,0
DA:1218,0
DA:1301,0
DA:1306,0
DA:1310,0
DA:1315,0
DA:1319,0
DA:1331,0
DA:1332,0
DA:1335,0
DA:1341,0
DA:1701,0
DA:1720,0
DA:1728,0
DA:1738,0
DA:1741,0
DA:1912,0
DA:1940,0
DA:1987,0
DA:1990,0
DA:1991,0
DA:1994,0
DA:1995,0
DA:1998,0
DA:2009,0
DA:2011,0
DA:2012,0
DA:2013,0
DA:2017,0
DA:2020,0
DA:2021,0
DA:2022,0
DA:2027,0
DA:2029,0
DA:2031,0
DA:2032,0
DA:2033,0
DA:2035,0
DA:2039,0
DA:2042,0
DA:2044,0
DA:2045,0
DA:2046,0
DA:2047,0
DA:2048,0
DA:2052,0
DA:2057,0
DA:2058,0
DA:2059,0
DA:2060,0
LF:96
LH:0
end_of_record
TN:
SF:/usr/include/c++/13/bits/ios_base.h
FNF:0
FNH:0
DA:166,13
DA:167,13
LF:2
LH:2
end_of_record
TN:
SF:/usr/include/c++/13/bits/locale_facets.h
FN:1092,1093,_ZNKSt5ctypeIcE8do_widenEc
FN:880,886,_ZNKSt5ctypeIcE5widenEc
FNDA:1,_ZNKSt5ctypeIcE8do_widenEc
FNDA:6,_ZNKSt5ctypeIcE5widenEc
FNF:2
FNH:2
DA:880,6
DA:882,6
DA:883,5
DA:884,1
DA:885,1
DA:1092,1
DA:1093,1
LF:7
LH:7
end_of_record
TN:
SF:/usr/include/c++/13/bits/move.h
FNF:0
FNH:0
DA:189,3
DA:197,3
DA:198,3
DA:199,3
DA:200,0
LF:5
LH:4
end_of_record
TN:
SF:/usr/include/c++/13/bits/new_allocator.h
FN:104,104,_ZNSt15__new_allocatorIPNSt8__detail15_Hash_node_baseEED2Ev
FN:126,152,_ZNSt15__new_allocatorINSt8__detail10_Hash_nodeImLb0EEEE8allocateEmPKv
FN:126,152,_ZNSt15__new_allocatorIPNSt8__detail15_Hash_node_baseEE8allocateEmPKv
FN:126,152,_ZNSt15__new_allocatorIPmE8allocateEmPKv
FN:126,152,_ZNSt15__new_allocatorISt4pairImmEE8allocateEmPKv
FN:126,152,_ZNSt15__new_allocatorISt6vectorImSaImEEE8allocateEmPKv
FN:126,152,_ZNSt15__new_allocatorIcE8allocateEmPKv
FN:126,152,_ZNSt15__new_allocatorImE8allocateEmPKv
FN:156,173,_ZNSt15__new_allocatorINSt8__detail10_Hash_nodeImLb0EEEE10deallocateEPS2_m
FN:156,173,_ZNSt15__new_allocatorIPNSt8__detail15_Hash_node_baseEE10deallocateEPS2_m
FN:156,173,_ZNSt15__new_allocatorISt4pairImmEE10deallocateEPS1_m
FN:156,173,_ZNSt15__new_allocatorISt6vectorImSaImEEE10deallocateEPS2_m
FN:156,173,_ZNSt15__new_allocatorIcE10deallocateEPcm
FN:156,173,_ZNSt15__new_allocatorImE10deallocateEPmm
FNDA:0,_ZNSt15__new_allocatorIPNSt8__detail15_Hash_node_baseEED2Ev
FNDA:0,_ZNSt15__new_allocatorINSt8__detail10_Hash_nodeImLb0EEEE8allocateEmPKv
FNDA:0,_ZNSt15__new_allocatorIPNSt8__detail15_Hash_node_baseEE8allocateEmPKv
FNDA:3,_ZNSt15__new_allocatorIPmE8allocateEmPKv
FNDA:0,_ZNSt15__new_allocatorISt4pairImmEE8allocateEmPKv
FNDA:2,_ZNSt15__new_allocatorISt6vectorImSaImEEE8allocateEmPKv
FNDA:2,_ZNSt15__new_allocatorIcE8allocateEmPKv
FNDA:19,_ZNSt15__new_allocatorImE8allocateEmPKv
FNDA:0,_ZNSt15__new_allocatorINSt8__detail10_Hash_nodeImLb0EEEE10deallocateEPS2_m
FNDA:0,_ZNSt15__new_allocatorIPNSt8__detail15_Hash_node_baseEE10deallocateEPS2_m
FNDA:0,_ZNSt15__new_allocatorISt4pairImmEE10deallocateEPS1_m
FNDA:2,_ZNSt15__new_allocatorISt6vectorImSaImEEE10deallocateEPS2_m
FNDA:2,_ZNSt15__new_allocatorIcE10deallocateEPcm
FNDA:19,_ZNSt15__new_allocatorImE10deallocateEPmm
FNF:14
FNH:7
DA:88,29
DA:92,12
DA:104,19
DA:126,26
DA:134,26
DA:138,0
DA:139,0
DA:140,0
DA:151,26
DA:156,26
DA:172,26
DA:189,32
DA:191,32
DA:196,26
DA:198,26
LF:15
LH:12
end_of_record
TN:
SF:/usr/include/c++/13/bits/predefined_ops.h
FNF:0
FNH:0
DA:262,5
DA:269,4
DA:270,4
DA:276,5
DA:277,5
LF:5
LH:5
end_of_record
TN:
SF:/usr/include/c++/13/bits/random.h
FNF:0
FNH:0
DA:139,0
DA:141,0
DA:143,0
DA:150,0
DA:157,0
DA:158,0
DA:545,0
DA:546,0
LF:8
LH:0
end_of_record
TN:
SF:/usr/include/c++/13/bits/random.tcc
FN:326,343,_ZNSt23mersenne_twister_engineImLm32ELm624ELm397ELm31ELm2567483615ELm11ELm4294967295ELm7ELm2636928640ELm15ELm4022730752ELm18ELm1812433253EE4seedEm
FN:397,425,_ZNSt23mersenne_twister_engineImLm32ELm624ELm397ELm31ELm2567483615ELm11ELm4294967295ELm7ELm2636928640ELm15ELm4022730752ELm18ELm1812433253EE11_M_gen_randEv
FN:453,469,_ZNSt23mersenne_twister_engineImLm32ELm624ELm397ELm31ELm2567483615ELm11ELm4294967295ELm7ELm2636928640ELm15ELm4022730752ELm18ELm1812433253EEclEv
FNDA:0,_ZNSt23mersenne_twister_engineImLm32ELm624ELm397ELm31ELm2567483615ELm11ELm4294967295ELm7ELm2636928640ELm15ELm4022730752ELm18ELm1812433253EE4seedEm
FNDA:0,_ZNSt23mersenne_twister_engineImLm32ELm624ELm397ELm31ELm2567483615ELm11ELm4294967295ELm7ELm2636928640ELm15ELm4022730752ELm18ELm1812433253EE11_M_gen_randEv
FNDA:0,_ZNSt23mersenne_twister_engineImLm32ELm624ELm397ELm31ELm2567483615ELm11ELm4294967295ELm7ELm2636928640ELm15ELm4022730752ELm18ELm1812433253EEclEv
FNF:3
FNH:0
DA:326,0
DA:330,0
DA:331,0
DA:333,0
DA:335,0
DA:336,0
DA:337,0
DA:338,0
DA:339,0
DA:340,0
DA:342,0
DA:343,0
DA:397,0
DA:401,0
DA:402,0
DA:404,0
DA:406,0
DA:407,0
DA:408,0
DA:409,0
DA:412,0
DA:414,0
DA:415,0
DA:416,0
DA:417,0
DA:420,0
DA:421,0
DA:422,0
DA:423,0
DA:424,0
DA:425,0
DA:453,0
DA:458,0
DA:459,0
DA:462,0
DA:463,0
DA:464,0
DA:465,0
DA:466,0
DA:468,0
LF:40
LH:0
end_of_record
TN:
SF:/usr/include/c++/13/bits/stl_algo.h
FN:1102,1114,_ZSt9__reverseIN9__gnu_cxx17__normal_iteratorIPmSt6vectorImSaImEEEEEvT_S7_St26random_access_iterator_tag
FN:3719,3725,_ZSt22__gen_two_uniform_intsImRSt23mersenne_twister_engineImLm32ELm624ELm397ELm31ELm2567483615ELm11ELm4294967295ELm7ELm2636928640ELm15ELm4022730752ELm18ELm1812433253EEESt4pairIT_S4_ES4_S4_OT0_
FN:3742,3805,_ZSt7shuffleIN9__gnu_cxx17__normal_iteratorIPSt4pairImmESt6vectorIS3_SaIS3_EEEERSt23mersenne_twister_engineImLm32ELm624ELm397ELm31ELm2567483615ELm11ELm4294967295ELm7ELm2636928640ELm15ELm4022730752ELm18ELm1812433253EEEvT_SC_OT0_
FN:3889,3899,_ZSt4findIN9__gnu_cxx17__normal_iteratorIPmSt6vectorImSaImEEEEmET_S7_S7_RKT0_
FNDA:1,_ZSt9__reverseIN9__gnu_cxx17__normal_iteratorIPmSt6vectorImSaImEEEEEvT_S7_St26random_access_iterator_tag
FNDA:0,_ZSt22__gen_two_uniform_intsImRSt23mersenne_twister_engineImLm32ELm624ELm397ELm31ELm2567483615ELm11ELm4294967295ELm7ELm2636928640ELm15ELm4022730752ELm18ELm1812433253EEESt4pairIT_S4_ES4_S4_OT0_
FNDA:0,_ZSt7shuffleIN9__gnu_cxx17__normal_iteratorIPSt4pairImmESt6vectorIS3_SaIS3_EEEERSt23mersenne_twister_engineImLm32ELm624ELm397ELm31ELm2567483615ELm11ELm4294967295ELm7ELm2636928640ELm15ELm4022730752ELm18ELm1812433253EEEvT_SC_OT0_
FNDA:5,_ZSt4findIN9__gnu_cxx17__normal_iteratorIPmSt6vectorImSaImEEEEmET_S7_S7_RKT0_
FNF:4
FNH:2
DA:1102,1
DA:1105,1
DA:1107,1
DA:1108,4
DA:1110,3
DA:1112,3
DA:1131,1
DA:1137,1
DA:3719,0
DA:3723,0
DA:3724,0
DA:3742,0
DA:3750,0
DA:3751,0
DA:3765,0
DA:3766,0
DA:3768,0
DA:3771,0
DA:3777,0
DA:3779,0
DA:3780,0
DA:3787,0
DA:3789,0
DA:3792,0
DA:3794,0
DA:3795,0
DA:3801,0
DA:3803,0
DA:3804,0
DA:3889,5
DA:3897,5
DA:3898,5
LF:32
LH:11
end_of_record
TN:
SF:/usr/include/c++/13/bits/stl_algobase.h
FN:2064,2110,_ZSt9__find_ifIN9__gnu_cxx17__normal_iteratorIPmSt6vectorImSaImEEEENS0_5__ops16_Iter_equals_valIKmEEET_SB_SB_T0_St26random_access_iterator_tag
FN:433,442,_ZNSt11__copy_moveILb0ELb1ESt26random_access_iterator_tagE8__copy_mIKmmEEPT0_PT_S7_S5_
FN:433,442,_ZNSt11__copy_moveILb0ELb1ESt26random_access_iterator_tagE8__copy_mIPmS3_EEPT0_PT_S7_S5_
FN:433,442,_ZNSt11__copy_moveILb0ELb1ESt26random_access_iterator_tagE8__copy_mImmEEPT0_PT_S6_S4_
FN:744,753,_ZNSt20__copy_move_backwardILb0ELb1ESt26random_access_iterator_tagE13__copy_move_bIPmS3_EEPT0_PT_S7_S5_
FN:939,952,_ZSt9__fill_a1IcEN9__gnu_cxx11__enable_ifIXsrSt9__is_byteIT_E7__valueEvE6__typeEPS3_S7_RKS3_
FNDA:5,_ZSt9__find_ifIN9__gnu_cxx17__normal_iteratorIPmSt6vectorImSaImEEEENS0_5__ops16_Iter_equals_valIKmEEET_SB_SB_T0_St26random_access_iterator_tag
FNDA:5,_ZNSt11__copy_moveILb0ELb1ESt26random_access_iterator_tagE8__copy_mIKmmEEPT0_PT_S7_S5_
FNDA:0,_ZNSt11__copy_moveILb0ELb1ESt26random_access_iterator_tagE8__copy_mIPmS3_EEPT0_PT_S7_S5_
FNDA:0,_ZNSt11__copy_moveILb0ELb1ESt26random_access_iterator_tagE8__copy_mImmEEPT0_PT_S6_S4_
FNDA:0,_ZNSt20__copy_move_backwardILb0ELb1ESt26random_access_iterator_tagE13__copy_move_bIPmS3_EEPT0_PT_S7_S5_
FNDA:2,_ZSt9__fill_a1IcEN9__gnu_cxx11__enable_ifIXsrSt9__is_byteIT_E7__valueEvE6__typeEPS3_S7_RKS3_
FNF:6
FNH:3
DA:155,3
DA:185,3
DA:257,13
DA:262,13
DA:263,5
DA:331,0
DA:332,0
DA:397,0
DA:398,0
DA:433,5
DA:435,5
DA:436,5
DA:437,5
DA:438,0
DA:440,0
DA:441,5
DA:497,5
DA:506,5
DA:532,5
DA:533,5
DA:538,5
DA:540,10
DA:624,5
DA:633,0
DA:744,0
DA:746,0
DA:747,0
DA:748,0
DA:749,0
DA:751,0
DA:752,0
DA:759,0
DA:769,0
DA:777,0
DA:778,0
DA:805,0
DA:807,0
DA:857,0
DA:867,0
DA:939,2
DA:941,2
DA:950,2
DA:951,2
DA:952,2
DA:976,2
DA:977,2
DA:1117,2
DA:1123,2
DA:1128,2
DA:1129,2
DA:1152,2
DA:1157,2
DA:2064,5
DA:2068,5
DA:2070,5
DA:2072,0
DA:2073,0
DA:2074,0
DA:2076,0
DA:2077,0
DA:2078,0
DA:2080,0
DA:2081,0
DA:2082,0
DA:2084,0
DA:2085,0
DA:2086,0
DA:2089,5
DA:2091,0
DA:2092,0
DA:2093,0
DA:2094,0
DA:2096,0
DA:2097,0
DA:2098,0
DA:2099,0
DA:2101,4
DA:2102,4
DA:2103,0
DA:2106,5
DA:2108,5
DA:2115,5
DA:2117,5
LF:83
LH:40
end_of_record
TN:
SF:/usr/include/c++/13/bits/stl_construct.h
FN:182,197,_ZSt8_DestroyIPSt4pairImmEEvT_S3_
FN:182,197,_ZSt8_DestroyIPSt6vectorImSaImEEEvT_S4_
FN:182,197,_ZSt8_DestroyIPcEvT_S1_
FN:182,197,_ZSt8_DestroyIPmEvT_S1_
FNDA:0,_ZSt8_DestroyIPSt4pairImmEEvT_S3_
FNDA:4,_ZSt8_DestroyIPSt6vectorImSaImEEEvT_S4_
FNDA:2,_ZSt8_DestroyIPcEvT_S1_
FNDA:2,_ZSt8_DestroyIPmEvT_S1_
FNF:4
FNH:3
DA:109,11
DA:119,11
DA:146,10
DA:151,10
DA:160,4
DA:162,14
DA:163,10
DA:182,8
DA:196,4
DA:197,8
LF:10
LH:10
end_of_record
TN:
SF:/usr/include/c++/13/bits/stl_deque.h
FN:1468,1474,_ZNSt5dequeImSaImEE4backEv
FN:1538,1549,_ZNSt5dequeImSaImEE9push_backERKm
FN:1574,1586,_ZNSt5dequeImSaImEE9pop_frontEv
FN:1597,1609,_ZNSt5dequeImSaImEE8pop_backEv
FN:210,219,_ZNSt15_Deque_iteratorImRmPmEmmEv
FN:2168,2173,_ZNSt5dequeImSaImEE22_M_reserve_map_at_backEm
FN:370,376,_ZStmiRKSt15_Deque_iteratorImRmPmES4_
FN:458,460,_ZNSt11_Deque_baseImSaImEEC2Ev
FN:617,626,_ZNSt11_Deque_baseImSaImEED2Ev
FN:638,673,_ZNSt11_Deque_baseImSaImEE17_M_initialize_mapEm
FN:677,691,_ZNSt11_Deque_baseImSaImEE15_M_create_nodesEPPmS3_
FN:695,701,_ZNSt11_Deque_baseImSaImEE16_M_destroy_nodesEPPmS3_
FNDA:11,_ZNSt5dequeImSaImEE4backEv
FNDA:16,_ZNSt5dequeImSaImEE9push_backERKm
FNDA:10,_ZNSt5dequeImSaImEE9pop_frontEv
FNDA:6,_ZNSt5dequeImSaImEE8pop_backEv
FNDA:11,_ZNSt15_Deque_iteratorImRmPmEmmEv
FNDA:0,_ZNSt5dequeImSaImEE22_M_reserve_map_at_backEm
FNDA:0,_ZStmiRKSt15_Deque_iteratorImRmPmES4_
FNDA:3,_ZNSt11_Deque_baseImSaImEEC2Ev
FNDA:3,_ZNSt11_Deque_baseImSaImEED2Ev
FNDA:3,_ZNSt11_Deque_baseImSaImEE17_M_initialize_mapEm
FNDA:3,_ZNSt11_Deque_baseImSaImEE15_M_create_nodesEPPmS3_
FNDA:3,_ZNSt11_Deque_baseImSaImEE16_M_destroy_nodesEPPmS3_
FNF:12
FNH:10
DA:151,3
DA:152,3
DA:168,24
DA:169,24
DA:170,24
DA:181,11
DA:182,11
DA:210,11
DA:212,11
DA:214,0
DA:215,0
DA:217,11
DA:218,11
DA:263,3
DA:265,3
DA:266,3
DA:267,3
DA:272,24
DA:273,24
DA:370,0
DA:373,0
DA:374,0
DA:375,0
DA:458,3
DA:459,3
DA:460,6
DA:516,3
DA:517,3
DA:542,3
DA:545,3
DA:547,3
DA:568,3
DA:569,7
DA:573,6
DA:576,6
DA:577,6
DA:580,3
DA:583,3
DA:587,3
DA:590,0
DA:594,0
DA:596,3
DA:597,3
DA:598,0
DA:601,0
DA:603,3
DA:604,3
DA:605,3
DA:617,3
DA:620,3
DA:622,3
DA:623,3
DA:624,3
DA:626,3
DA:638,3
DA:641,3
DA:644,6
DA:645,3
DA:646,3
DA:653,3
DA:654,3
DA:655,3
DA:658,3
DA:659,0
DA:661,0
DA:662,0
DA:663,0
DA:664,0
DA:667,3
DA:668,3
DA:669,3
DA:670,3
DA:671,3
DA:672,3
DA:673,3
DA:677,3
DA:683,6
DA:684,3
DA:686,0
DA:688,0
DA:689,0
DA:691,3
DA:695,3
DA:699,6
DA:700,3
DA:701,3
DA:855,3
DA:1027,3
DA:1028,3
DA:1151,13
DA:1152,13
DA:1170,14
DA:1171,14
DA:1268,0
DA:1269,0
DA:1275,0
DA:1347,24
DA:1348,24
DA:1444,10
DA:1447,10
DA:1468,11
DA:1471,11
DA:1472,11
DA:1473,11
DA:1538,16
DA:1540,16
DA:1541,16
DA:1543,16
DA:1545,16
DA:1548,0
DA:1549,16
DA:1574,10
DA:1577,10
DA:1578,10
DA:1580,10
DA:1582,10
DA:1585,0
DA:1586,10
DA:1597,6
DA:1600,6
DA:1601,6
DA:1603,6
DA:1604,6
DA:1608,0
DA:1609,6
DA:2087,3
DA:2168,0
DA:2170,0
DA:2171,0
DA:2172,0
DA:2173,0
LF:131
LH:102
end_of_record
TN:
SF:/usr/include/c++/13/bits/stl_function.h
FNF:0
FNH:0
DA:377,0
DA:378,0
LF:2
LH:0
end_of_record
TN:
SF:/usr/include/c++/13/bits/stl_iterator.h
FNF:0
FNH:0
DA:1076,43
DA:1077,48
DA:1109,29
DA:1111,17
DA:1112,26
DA:1117,0
DA:1118,0
DA:1123,4
DA:1125,4
DA:1126,4
DA:1147,0
DA:1148,0
DA:1157,10
DA:1158,0
DA:1241,5
DA:1244,5
DA:1334,20
DA:1337,20
LF:18
LH:13
end_of_record
TN:
SF:/usr/include/c++/13/bits/stl_iterator_base_funcs.h
FNF:0
FNH:0
DA:100,9
DA:106,9
DA:148,9
DA:151,9
LF:4
LH:4
end_of_record
TN:
SF:/usr/include/c++/13/bits/stl_pair.h
FNF:0
FNH:0
DA:206,0
DA:211,0
DA:212,0
DA:687,0
DA:688,0
DA:879,0
DA:881,0
DA:922,0
DA:927,0
DA:1041,0
LF:10
LH:0
end_of_record
TN:
SF:/usr/include/c++/13/bits/stl_queue.h
FN:166,167,_ZNSt5queueImSt5dequeImSaImEEEC2IS2_vEEv
FNDA:2,_ZNSt5queueImSt5dequeImSaImEEEC2IS2_vEEv
FNF:1
FNH:1
DA:96,2
DA:166,2
DA:167,2
DA:218,12
DA:219,12
DA:233,10
DA:236,10
DA:285,10
DA:286,10
DA:318,10
DA:321,10
LF:11
LH:11
end_of_record
TN:
SF:/usr/include/c++/13/bits/stl_stack.h
FN:162,163,_ZNSt5stackImSt5dequeImSaImEEEC2IS2_vEEv
FNDA:1,_ZNSt5stackImSt5dequeImSaImEEEC2IS2_vEEv
FNF:1
FNH:1
DA:99,1
DA:162,1
DA:163,1
DA:217,12
DA:218,12
DA:232,11
DA:235,11
DA:260,6
DA:261,6
DA:293,6
DA:296,6
DA:297,6
LF:12
LH:12
end_of_record
TN:
SF:/usr/include/c++/13/bits/stl_uninitialized.h
FNF:0
FNH:0
DA:145,5
DA:147,5
DA:163,5
DA:174,5
DA:181,5
DA:185,5
DA:292,2
DA:294,2
DA:312,2
DA:319,2
DA:327,2
DA:366,5
DA:373,0
DA:465,2
DA:472,2
DA:637,2
DA:639,2
DA:642,12
DA:643,10
DA:696,2
DA:707,2
DA:712,2
DA:777,2
DA:779,2
DA:1069,0
DA:1077,0
DA:1078,0
DA:1091,0
DA:1103,0
DA:1104,0
DA:1105,0
DA:1114,21
DA:1118,21
DA:1119,21
DA:1131,5
DA:1133,10
DA:1141,10
DA:1147,16
LF:38
LH:30
end_of_record
TN:
SF:/usr/include/c++/13/bits/stl_vector.h
FN:1281,1293,_ZNSt6vectorImSaImEE9push_backERKm
FN:1616,1631,_ZNSt6vectorImSaImEE20_M_allocate_and_copyIN9__gnu_cxx17__normal_iteratorIPKmS1_EEEEPmmT_S9_
FN:1704,1709,_ZNSt6vectorIcSaIcEE18_M_fill_initializeEmRKc
FN:1896,1903,_ZNKSt6vectorISt4pairImmESaIS1_EE12_M_check_lenEmPKc
FN:1896,1903,_ZNKSt6vectorImSaImEE12_M_check_lenEmPKc
FN:1959,1965,_ZNSt6vectorIS_ImSaImEESaIS1_EE14_M_move_assignEOS3_St17integral_constantIbLb1EE
FN:367,371,_ZNSt12_Vector_baseISt4pairImmESaIS1_EED2Ev
FN:367,371,_ZNSt12_Vector_baseISt6vectorImSaImEESaIS2_EED2Ev
FN:367,371,_ZNSt12_Vector_baseIcSaIcEED2Ev
FN:367,371,_ZNSt12_Vector_baseImSaImEED2Ev
FN:396,401,_ZNSt12_Vector_baseISt6vectorImSaImEESaIS2_EE17_M_create_storageEm
FN:396,401,_ZNSt12_Vector_baseIcSaIcEE17_M_create_storageEm
FN:556,558,_ZNSt6vectorIS_ImSaImEESaIS1_EEC2EmRKS2_
FN:569,572,_ZNSt6vectorIcSaIcEEC2EmRKcRKS0_
FN:733,738,_ZNSt6vectorIS_ImSaImEESaIS1_EED2Ev
FN:733,738,_ZNSt6vectorISt4pairImmESaIS1_EED2Ev
FN:733,738,_ZNSt6vectorIcSaIcEED2Ev
FN:733,738,_ZNSt6vectorImSaImEED2Ev
FNDA:16,_ZNSt6vectorImSaImEE9push_backERKm
FNDA:5,_ZNSt6vectorImSaImEE20_M_allocate_and_copyIN9__gnu_cxx17__normal_iteratorIPKmS1_EEEEPmmT_S9_
FNDA:2,_ZNSt6vectorIcSaIcEE18_M_fill_initializeEmRKc
FNDA:0,_ZNKSt6vectorISt4pairImmESaIS1_EE12_M_check_lenEmPKc
FNDA:10,_ZNKSt6vectorImSaImEE12_M_check_lenEmPKc
FNDA:0,_ZNSt6vectorIS_ImSaImEESaIS1_EE14_M_move_assignEOS3_St17integral_constantIbLb1EE
FNDA:0,_ZNSt12_Vector_baseISt4pairImmESaIS1_EED2Ev
FNDA:4,_ZNSt12_Vector_baseISt6vectorImSaImEESaIS2_EED2Ev
FNDA:2,_ZNSt12_Vector_baseIcSaIcEED2Ev
FNDA:12,_ZNSt12_Vector_baseImSaImEED2Ev
FNDA:2,_ZNSt12_Vector_baseISt6vectorImSaImEESaIS2_EE17_M_create_storageEm
FNDA:2,_ZNSt12_Vector_baseIcSaIcEE17_M_create_storageEm
FNDA:2,_ZNSt6vectorIS_ImSaImEESaIS1_EEC2EmRKS2_
FNDA:2,_ZNSt6vectorIcSaIcEEC2EmRKcRKS0_
FNDA:4,_ZNSt6vectorIS_ImSaImEESaIS1_EED2Ev
FNDA:0,_ZNSt6vectorISt4pairImmESaIS1_EED2Ev
FNDA:2,_ZNSt6vectorIcSaIcEED2Ev
FNDA:2,_ZNSt6vectorImSaImEED2Ev
FNF:18
FNH:14
DA:99,15
DA:100,15
DA:105,3
DA:106,3
DA:107,3
DA:108,3
DA:113,0
DA:115,0
DA:116,0
DA:117,0
DA:122,0
DA:126,0
DA:127,0
DA:128,0
DA:129,0
DA:133,18
DA:137,11
DA:142,11
DA:146,4
DA:147,4
DA:154,3
DA:155,3
DA:301,18
DA:302,21
DA:307,21
DA:311,0
DA:312,0
DA:315,11
DA:321,0
DA:322,0
DA:333,4
DA:334,4
DA:335,4
DA:338,3
DA:367,18
DA:369,36
DA:370,18
DA:371,18
DA:378,20
DA:381,20
DA:386,34
DA:389,34
DA:390,20
DA:396,4
DA:398,4
DA:399,4
DA:400,4
DA:401,4
DA:504,16
DA:509,11
DA:531,11
DA:542,0
DA:543,0
DA:556,2
DA:557,2
DA:558,2
DA:569,2
DA:571,2
DA:572,2
DA:620,3
DA:733,18
DA:735,26
DA:736,18
DA:738,18
DA:766,0
DA:768,0
DA:771,0
DA:873,17
DA:874,17
DA:883,46
DA:884,34
DA:893,27
DA:894,17
DA:903,46
DA:904,16
DA:992,42
DA:993,22
DA:999,1
DA:1078,6
DA:1079,6
DA:1080,6
DA:1088,31
DA:1089,31
DA:1126,69
DA:1129,64
DA:1145,43
DA:1148,43
DA:1233,10
DA:1236,10
DA:1281,16
DA:1283,16
DA:1286,6
DA:1288,6
DA:1292,10
DA:1293,16
DA:1322,10
DA:1325,10
DA:1326,10
DA:1328,5
DA:1616,5
DA:1619,5
DA:1622,5
DA:1623,5
DA:1624,5
DA:1704,2
DA:1706,2
DA:1707,4
DA:1708,2
DA:1709,2
DA:1715,2
DA:1717,2
DA:1718,4
DA:1719,2
DA:1896,10
DA:1898,10
DA:1899,0
DA:1901,10
DA:1902,10
DA:1907,4
DA:1909,4
DA:1910,0
DA:1959,0
DA:1961,0
DA:1962,0
DA:1963,0
DA:1964,0
DA:1965,0
LF:127
LH:101
end_of_record
TN:
SF:/usr/include/c++/13/bits/uniform_int_dist.h
FN:257,281,_ZNSt24uniform_int_distributionImE5_S_ndImSt23mersenne_twister_engineImLm32ELm624ELm397ELm31ELm2567483615ELm11ELm4294967295ELm7ELm2636928640ELm15ELm4022730752ELm18ELm1812433253EEjEET1_RT0_S4_
FN:287,373,_ZNSt24uniform_int_distributionImEclISt23mersenne_twister_engineImLm32ELm624ELm397ELm31ELm2567483615ELm11ELm4294967295ELm7ELm2636928640ELm15ELm4022730752ELm18ELm1812433253EEEEmRT_RKNS0_10param_typeE
FNDA:0,_ZNSt24uniform_int_distributionImE5_S_ndImSt23mersenne_twister_engineImLm32ELm624ELm397ELm31ELm2567483615ELm11ELm4294967295ELm7ELm2636928640ELm15ELm4022730752ELm18ELm1812433253EEjEET1_RT0_S4_
FNDA:0,_ZNSt24uniform_int_distributionImEclISt23mersenne_twister_engineImLm32ELm624ELm397ELm31ELm2567483615ELm11ELm4294967295ELm7ELm2636928640ELm15ELm4022730752ELm18ELm1812433253EEEEmRT_RKNS0_10param_typeE
FNF:2
FNH:0
DA:104,0
DA:106,0
DA:108,0
DA:112,0
DA:113,0
DA:116,0
DA:117,0
DA:136,0
DA:142,0
DA:145,0
DA:203,0
DA:204,0
DA:257,0
DA:269,0
DA:270,0
DA:271,0
DA:273,0
DA:274,0
DA:276,0
DA:277,0
DA:280,0
DA:287,0
DA:295,0
DA:296,0
DA:299,0
DA:301,0
DA:302,0
DA:305,0
DA:309,0
DA:327,0
DA:328,0
DA:342,0
DA:362,0
DA:363,0
DA:364,0
DA:365,0
DA:367,0
DA:370,0
DA:372,0
LF:39
LH:0
end_of_record
TN:
SF:/usr/include/c++/13/bits/unordered_set.h
FNF:0
FNH:0
DA:104,0
DA:142,0
DA:311,0
DA:312,0
DA:327,0
DA:328,0
DA:341,0
DA:342,0
DA:432,0
DA:433,0
DA:867,0
DA:868,0
LF:12
LH:0
end_of_record
TN:
SF:/usr/include/c++/13/bits/vector.tcc
FN:111,127,_ZNSt6vectorISt4pairImmESaIS1_EE12emplace_backIJRmS5_EEERS1_DpOT_
FN:210,265,_ZNSt6vectorImSaImEEaSERKS1_
FN:445,524,_ZNSt6vectorISt4pairImmESaIS1_EE17_M_realloc_insertIJRmS5_EEEvN9__gnu_cxx17__normal_iteratorIPS1_S3_EEDpOT_
FN:445,524,_ZNSt6vectorImSaImEE17_M_realloc_insertIJRKmEEEvN9__gnu_cxx17__normal_iteratorIPmS1_EEDpOT_
FN:67,100,_ZNSt6vectorISt4pairImmESaIS1_EE7reserveEm
FN:67,100,_ZNSt6vectorImSaImEE7reserveEm
FNDA:0,_ZNSt6vectorISt4pairImmESaIS1_EE12emplace_backIJRmS5_EEERS1_DpOT_
FNDA:5,_ZNSt6vectorImSaImEEaSERKS1_
FNDA:0,_ZNSt6vectorISt4pairImmESaIS1_EE17_M_realloc_insertIJRmS5_EEEvN9__gnu_cxx17__normal_iteratorIPS1_S3_EEDpOT_
FNDA:10,_ZNSt6vectorImSaImEE17_M_realloc_insertIJRKmEEEvN9__gnu_cxx17__normal_iteratorIPmS1_EEDpOT_
FNDA:0,_ZNSt6vectorISt4pairImmESaIS1_EE7reserveEm
FNDA:1,_ZNSt6vectorImSaImEE7reserveEm
FNF:6
FNH:3
DA:67,1
DA:70,1
DA:71,0
DA:72,1
DA:74,1
DA:79,1
DA:80,1
DA:81,1
DA:93,2
DA:94,1
DA:95,1
DA:96,1
DA:97,1
DA:98,1
DA:100,1
DA:111,0
DA:114,0
DA:117,0
DA:119,0
DA:123,0
DA:125,0
DA:210,5
DA:213,5
DA:235,5
DA:236,5
DA:238,5
DA:240,5
DA:241,5
DA:242,10
DA:243,5
DA:244,5
DA:245,5
DA:246,5
DA:248,0
DA:250,0
DA:251,0
DA:255,0
DA:257,0
DA:258,0
DA:260,0
DA:262,5
DA:264,5
DA:445,10
DA:455,10
DA:456,10
DA:457,10
DA:458,10
DA:459,10
DA:460,10
DA:468,10
DA:469,10
DA:475,10
DA:480,10
DA:481,10
DA:483,10
DA:485,10
DA:486,10
DA:519,20
DA:520,10
DA:521,10
DA:522,10
DA:523,10
DA:524,10
LF:63
LH:49
end_of_record
TN:
SF:/usr/include/c++/13/ext/aligned_buffer.h
FN:116,117,_ZN9__gnu_cxx16__aligned_bufferImE6_M_ptrEv
FN:120,121,_ZNK9__gnu_cxx16__aligned_bufferImE6_M_ptrEv
FNDA:0,_ZN9__gnu_cxx16__aligned_bufferImE6_M_ptrEv
FNDA:0,_ZNK9__gnu_cxx16__aligned_bufferImE6_M_ptrEv
FNF:2
FNH:0
DA:104,0
DA:106,0
DA:110,0
DA:112,0
DA:116,0
DA:117,0
DA:120,0
DA:121,0
LF:8
LH:0
end_of_record
TN:
SF:/usr/include/c++/13/istream
FNF:0
FNH:0
DA:192,12
DA:193,6
LF:2
LH:2
end_of_record
TN:
SF:/usr/include/c++/13/optional
FN:104,105,_ZNKSt19bad_optional_access4whatEv
FN:189,202,_ZNSt22_Optional_payload_baseI5GraphE14_M_move_assignEOS1_
FN:315,321,_ZNSt22_Optional_payload_baseI5GraphE8_M_resetEv
FN:848,858,_ZNSt8optionalI5GraphEaSIS0_EENSt9enable_ifIX7__and_vISt6__not_ISt7is_sameIS1_NSt9remove_cvINSt16remove_referenceIT_E4typeEE4typeEEES4_ISt6__and_IJSt9is_scalarIS0_ES5_IS0_NSt5decayIS8_E4typeEEEEESt16is_constructibleIS0_JS8_EESt13is_assignableIRS0_S8_EEERS1_E4typeEOS8_
FNDA:0,_ZNKSt19bad_optional_access4whatEv
FNDA:1,_ZNSt22_Optional_payload_baseI5GraphE14_M_move_assignEOS1_
FNDA:2,_ZNSt22_Optional_payload_baseI5GraphE8_M_resetEv
FNDA:0,_ZNSt8optionalI5GraphEaSIS0_EENSt9enable_ifIX7__and_vISt6__not_ISt7is_sameIS1_NSt9remove_cvINSt16remove_referenceIT_E4typeEE4typeEEES4_ISt6__and_IJSt9is_scalarIS0_ES5_IS0_NSt5decayIS8_E4typeEEEEESt16is_constructibleIS0_JS8_EESt13is_assignableIRS0_S8_EEERS1_E4typeEOS8_
FNF:4
FNH:2
DA:104,0
DA:105,0
DA:120,0
DA:121,2
DA:125,1
DA:126,1
DA:127,1
DA:189,1
DA:193,1
DA:194,0
DA:197,1
DA:198,1
DA:200,0
DA:202,1
DA:239,0
DA:243,1
DA:244,1
DA:263,2
DA:275,1
DA:278,1
DA:280,1
DA:281,1
DA:284,2
DA:286,2
DA:287,2
DA:288,2
DA:306,1
DA:307,1
DA:315,2
DA:317,2
DA:318,2
DA:320,0
DA:321,2
DA:399,1
DA:401,0
DA:402,2
DA:418,1
DA:422,1
DA:433,1
DA:434,0
DA:438,2
DA:441,4
DA:456,0
DA:459,0
DA:461,0
DA:472,1
DA:473,1
DA:477,1
DA:479,1
DA:480,1
DA:512,1
DA:516,0
DA:522,1
DA:523,1
DA:552,2
DA:707,2
DA:741,0
DA:749,1
DA:751,1
DA:848,0
DA:852,0
DA:853,0
DA:855,0
DA:857,0
DA:975,1
DA:976,1
DA:986,1
DA:987,1
LF:68
LH:49
end_of_record
TN:
SF:/usr/include/c++/13/ostream
FNF:0
FNH:0
DA:172,7
DA:173,7
LF:2
LH:2
end_of_record
TN:
SF:/usr/include/c++/13/sstream
FNF:0
FNH:0
LF:0
LH:0
end_of_record
TN:
SF:/usr/include/c++/13/streambuf
FNF:0
FNH:0
LF:0
LH:0
end_of_record
